target datalayout = "e-m:e-p270:32:32-p271:32:32-p272:64:64-i64:64-i128:128-f80:128-n8:16:32:64-S128"
target triple = "x86_64-pc-linux-gnu"

%"class.std::map" = type { %"class.std::_Rb_tree" }
%"class.std::_Rb_tree" = type { %"struct.std::_Rb_tree<std::__cxx11::basic_string<char>, std::pair<const std::__cxx11::basic_string<char>, casadi::GenericType>, std::_Select1st<std::pair<const std::__cxx11::basic_string<char>, casadi::GenericType>>, std::less<std::__cxx11::basic_string<char>>>::_Rb_tree_impl" }
%"struct.std::_Rb_tree<std::__cxx11::basic_string<char>, std::pair<const std::__cxx11::basic_string<char>, casadi::GenericType>, std::_Select1st<std::pair<const std::__cxx11::basic_string<char>, casadi::GenericType>>, std::less<std::__cxx11::basic_string<char>>>::_Rb_tree_impl" = type { [8 x i8], %"struct.std::_Rb_tree_header" }
%"struct.std::_Rb_tree_header" = type { %"struct.std::_Rb_tree_node_base", i64 }
%"struct.std::_Rb_tree_node_base" = type { i32, ptr, ptr, ptr }

; Function Attrs: mustprogress uwtable
define noundef ptr @_ZNK6casadi8Function6memoryEi(ptr noundef nonnull align 8 dereferenceable(8) %0, i32 noundef %1) #6 align 2 {
  %3 = alloca ptr, align 8
  %4 = alloca i32, align 4
  store ptr %0, ptr %3, align 8, !tbaa !23
  store i32 %1, ptr %4, align 4, !tbaa !36
  %5 = load ptr, ptr %3, align 8
  %6 = call noundef ptr @_ZNK6casadi8FunctionptEv(ptr noundef nonnull align 8 dereferenceable(8) %5)
  %7 = load i32, ptr %4, align 4, !tbaa !36
  %8 = call noundef ptr @_ZNK6casadi13ProtoFunction6memoryEi(ptr noundef nonnull align 8 dereferenceable(168) %6, i32 noundef %7)
  ret ptr %8
}

; Function Attrs: mustprogress uwtable
define void @_ZNK6casadi8Function5statsB5cxx11Ei(ptr dead_on_unwind noalias writable sret(%"class.std::map") align 8 %0, ptr noundef nonnull align 8 dereferenceable(8) %1, i32 noundef %2) #6 align 2 {
  %4 = alloca ptr, align 8
  %5 = alloca ptr, align 8
  %6 = alloca i32, align 4
  store ptr %0, ptr %4, align 8
  store ptr %1, ptr %5, align 8, !tbaa !23
  store i32 %2, ptr %6, align 4, !tbaa !36
  %7 = load ptr, ptr %5, align 8
  %8 = call noundef ptr @_ZNK6casadi8FunctionptEv(ptr noundef nonnull align 8 dereferenceable(8) %7)
  %9 = load i32, ptr %6, align 4, !tbaa !36
  %10 = call noundef ptr @_ZNK6casadi8Function6memoryEi(ptr noundef nonnull align 8 dereferenceable(8) %7, i32 noundef %9)
  %11 = load ptr, ptr %8, align 8, !tbaa !29
  %12 = getelementptr inbounds ptr, ptr %11, i64 13
  %13 = load ptr, ptr %12, align 8
  call void %13(ptr dead_on_unwind writable sret(%"class.std::map") align 8 %0, ptr noundef nonnull align 8 dereferenceable(168) %8, ptr noundef %10)
  ret void
}