; Function Attrs: mustprogress uwtable
define void @_ZNK6casadi8Function5statsB5cxx11Ei(ptr dead_on_unwind noalias writable sret(%"class.std::map") align 8 %0, ptr noundef nonnull align 8 dereferenceable(8) %1, i32 noundef %2) local_unnamed_addr #4 align 2 {
  %4 = tail call noundef ptr @_ZNK6casadi8FunctionptEv(ptr noundef nonnull align 8 dereferenceable(8) %1)
  %5 = tail call noundef ptr @_ZNK6casadi8FunctionptEv(ptr noundef nonnull align 8 dereferenceable(8) %1)
  %6 = tail call noundef ptr @_ZNK6casadi13ProtoFunction6memoryEi(ptr noundef nonnull align 8 dereferenceable(168) %5, i32 noundef %2)
  %7 = load ptr, ptr %4, align 8, !tbaa !25
  %8 = getelementptr inbounds nuw i8, ptr %7, i64 104
  %9 = load ptr, ptr %8, align 8
  tail call void %9(ptr dead_on_unwind writable sret(%"class.std::map") align 8 %0, ptr noundef nonnull align 8 dereferenceable(168) %4, ptr noundef %6)
  ret void
}